target datalayout = "e-m:e-p270:32:32-p271:32:32-p272:64:64-i64:64-i128:128-f80:128-n8:16:32:64-S128"
target triple = "x86_64-pc-linux-gnu"

%"class.clang::ast_matchers::internal::DynMatcherInterface.base" = type <{ ptr, %"class.llvm::ThreadSafeRefCountedBase" }>
%"class.llvm::ThreadSafeRefCountedBase" = type { %"struct.std::atomic" }
%"struct.std::atomic" = type { %"struct.std::__atomic_base" }
%"struct.std::__atomic_base" = type { i32 }
%"class.clang::ast_matchers::internal::DynTypedMatcher" = type { i8, %"class.clang::ASTNodeKind", %"class.clang::ASTNodeKind", %"class.llvm::IntrusiveRefCntPtr.349" }
%"class.clang::ASTNodeKind" = type { i32 }
%"class.llvm::IntrusiveRefCntPtr.349" = type { ptr }
%"class.std::vector.773" = type { %"struct.std::_Vector_base.774" }
%"struct.std::_Vector_base.774" = type { %"struct.std::_Vector_base<clang::ast_matchers::internal::DynTypedMatcher, std::allocator<clang::ast_matchers::internal::DynTypedMatcher>>::_Vector_impl" }
%"struct.std::_Vector_base<clang::ast_matchers::internal::DynTypedMatcher, std::allocator<clang::ast_matchers::internal::DynTypedMatcher>>::_Vector_impl" = type { %"struct.std::_Vector_base<clang::ast_matchers::internal::DynTypedMatcher, std::allocator<clang::ast_matchers::internal::DynTypedMatcher>>::_Vector_impl_data" }
%"struct.std::_Vector_base<clang::ast_matchers::internal::DynTypedMatcher, std::allocator<clang::ast_matchers::internal::DynTypedMatcher>>::_Vector_impl_data" = type { ptr, ptr, ptr }
%"class.clang::ast_matchers::internal::(anonymous namespace)::VariadicMatcher.778" = type { %"class.clang::ast_matchers::internal::DynMatcherInterface.base", %"class.std::vector.773" }

; Function Attrs: mustprogress nounwind uwtable
define linkonce_odr hidden void @_ZNK4llvm24ThreadSafeRefCountedBaseIN5clang12ast_matchers8internal19DynMatcherInterfaceEE7ReleaseEv(ptr noundef nonnull align 4 dereferenceable(4) %0) #0 comdat align 2 {
  %2 = alloca ptr, align 8
  %3 = alloca i32, align 4
  %4 = alloca i32, align 4
  %5 = alloca i32, align 4
  %6 = alloca i32, align 4
  %7 = alloca ptr, align 8
  %8 = alloca i32, align 4
  store ptr %0, ptr %7, align 8
  %9 = load ptr, ptr %7, align 8
  %10 = getelementptr inbounds nuw %"class.llvm::ThreadSafeRefCountedBase", ptr %9, i32 0, i32 0
  store ptr %10, ptr %2, align 8
  store i32 1, ptr %3, align 4
  store i32 4, ptr %4, align 4
  %11 = load ptr, ptr %2, align 8
  %12 = load i32, ptr %4, align 4
  %13 = load i32, ptr %3, align 4
  store i32 %13, ptr %5, align 4
  switch i32 %12, label %14 [
    i32 1, label %17
    i32 2, label %17
    i32 3, label %20
    i32 4, label %23
    i32 5, label %26
  ]

14:                                               ; preds = %1
  %15 = load i32, ptr %5, align 4
  %16 = atomicrmw sub ptr %11, i32 %15 monotonic, align 4
  store i32 %16, ptr %6, align 4
  br label %29

17:                                               ; preds = %1, %1
  %18 = load i32, ptr %5, align 4
  %19 = atomicrmw sub ptr %11, i32 %18 acquire, align 4
  store i32 %19, ptr %6, align 4
  br label %29

20:                                               ; preds = %1
  %21 = load i32, ptr %5, align 4
  %22 = atomicrmw sub ptr %11, i32 %21 release, align 4
  store i32 %22, ptr %6, align 4
  br label %29

23:                                               ; preds = %1
  %24 = load i32, ptr %5, align 4
  %25 = atomicrmw sub ptr %11, i32 %24 acq_rel, align 4
  store i32 %25, ptr %6, align 4
  br label %29

26:                                               ; preds = %1
  %27 = load i32, ptr %5, align 4
  %28 = atomicrmw sub ptr %11, i32 %27 seq_cst, align 4
  store i32 %28, ptr %6, align 4
  br label %29

29:                                               ; preds = %26, %23, %20, %17, %14
  %30 = load i32, ptr %6, align 4
  %31 = sub nsw i32 %30, 1
  store i32 %31, ptr %8, align 4
  %32 = load i32, ptr %8, align 4
  %33 = icmp eq i32 %32, 0
  br i1 %33, label %34, label %42

34:                                               ; preds = %29
  %35 = getelementptr inbounds i8, ptr %9, i64 -8
  %36 = icmp eq ptr %35, null
  br i1 %36, label %41, label %37

37:                                               ; preds = %34
  %38 = load ptr, ptr %35, align 8
  %39 = getelementptr inbounds ptr, ptr %38, i64 1
  %40 = load ptr, ptr %39, align 8
  call void %40(ptr noundef nonnull align 8 dereferenceable(12) %35) #8
  br label %41

41:                                               ; preds = %37, %34
  br label %42

42:                                               ; preds = %41, %29
  ret void
}

; Function Attrs: mustprogress nounwind uwtable
define linkonce_odr hidden void @_ZN4llvm22IntrusiveRefCntPtrInfoIN5clang12ast_matchers8internal19DynMatcherInterfaceEE7releaseEPS4_(ptr noundef %0) #0 comdat align 2 {
  %2 = alloca ptr, align 8
  store ptr %0, ptr %2, align 8
  %3 = load ptr, ptr %2, align 8
  %4 = getelementptr inbounds i8, ptr %3, i64 8
  call void @_ZNK4llvm24ThreadSafeRefCountedBaseIN5clang12ast_matchers8internal19DynMatcherInterfaceEE7ReleaseEv(ptr noundef nonnull align 4 dereferenceable(4) %4)
  ret void
}

; Function Attrs: mustprogress nounwind uwtable
define linkonce_odr hidden void @_ZN4llvm18IntrusiveRefCntPtrIN5clang12ast_matchers8internal19DynMatcherInterfaceEE7releaseEv(ptr noundef nonnull align 8 dereferenceable(8) %0) #0 comdat align 2 {
  %2 = alloca ptr, align 8
  store ptr %0, ptr %2, align 8
  %3 = load ptr, ptr %2, align 8
  %4 = getelementptr inbounds nuw %"class.llvm::IntrusiveRefCntPtr.349", ptr %3, i32 0, i32 0
  %5 = load ptr, ptr %4, align 8
  %6 = icmp ne ptr %5, null
  br i1 %6, label %7, label %10

7:                                                ; preds = %1
  %8 = getelementptr inbounds nuw %"class.llvm::IntrusiveRefCntPtr.349", ptr %3, i32 0, i32 0
  %9 = load ptr, ptr %8, align 8
  call void @_ZN4llvm22IntrusiveRefCntPtrInfoIN5clang12ast_matchers8internal19DynMatcherInterfaceEE7releaseEPS4_(ptr noundef %9)
  br label %10

10:                                               ; preds = %7, %1
  ret void
}

; Function Attrs: mustprogress nounwind uwtable
define linkonce_odr hidden void @_ZN4llvm18IntrusiveRefCntPtrIN5clang12ast_matchers8internal19DynMatcherInterfaceEED2Ev(ptr noundef nonnull align 8 dereferenceable(8) %0) unnamed_addr #0 comdat align 2 {
  %2 = alloca ptr, align 8
  store ptr %0, ptr %2, align 8
  %3 = load ptr, ptr %2, align 8
  call void @_ZN4llvm18IntrusiveRefCntPtrIN5clang12ast_matchers8internal19DynMatcherInterfaceEE7releaseEv(ptr noundef nonnull align 8 dereferenceable(8) %3)
  ret void
}

; Function Attrs: mustprogress nounwind uwtable
define linkonce_odr hidden void @_ZN5clang12ast_matchers8internal15DynTypedMatcherD2Ev(ptr noundef nonnull align 8 dereferenceable(24) %0) unnamed_addr #0 comdat align 2 {
  %2 = alloca ptr, align 8
  store ptr %0, ptr %2, align 8
  %3 = load ptr, ptr %2, align 8
  %4 = getelementptr inbounds nuw %"class.clang::ast_matchers::internal::DynTypedMatcher", ptr %3, i32 0, i32 3
  call void @_ZN4llvm18IntrusiveRefCntPtrIN5clang12ast_matchers8internal19DynMatcherInterfaceEED2Ev(ptr noundef nonnull align 8 dereferenceable(8) %4) #8
  ret void
}

; Function Attrs: mustprogress nounwind uwtable
define linkonce_odr hidden void @_ZNSt15__new_allocatorIN5clang12ast_matchers8internal15DynTypedMatcherEED2Ev(ptr noundef nonnull align 1 dereferenceable(1) %0) unnamed_addr #0 comdat align 2 {
  %2 = alloca ptr, align 8
  store ptr %0, ptr %2, align 8
  ret void
}

; Function Attrs: mustprogress nounwind uwtable
define linkonce_odr hidden void @_ZNSt15__new_allocatorIN5clang12ast_matchers8internal15DynTypedMatcherEE10deallocateEPS3_m(ptr noundef nonnull align 1 dereferenceable(1) %0, ptr noundef %1, i64 noundef %2) #0 comdat align 2 {
  %4 = alloca ptr, align 8
  %5 = alloca ptr, align 8
  %6 = alloca i64, align 8
  store ptr %0, ptr %4, align 8
  store ptr %1, ptr %5, align 8
  store i64 %2, ptr %6, align 8
  %7 = load ptr, ptr %5, align 8
  %8 = load i64, ptr %6, align 8
  %9 = mul i64 %8, 24
  call void @_ZdlPvm(ptr noundef %7, i64 noundef %9) #17
  ret void
}

; Function Attrs: mustprogress nounwind uwtable
define linkonce_odr void @_ZSt8_DestroyIN5clang12ast_matchers8internal15DynTypedMatcherEEvPT_(ptr noundef %0) #0 comdat {
  %2 = alloca ptr, align 8
  store ptr %0, ptr %2, align 8
  %3 = load ptr, ptr %2, align 8
  call void @_ZN5clang12ast_matchers8internal15DynTypedMatcherD2Ev(ptr noundef nonnull align 8 dereferenceable(24) %3) #8
  ret void
}

; Function Attrs: mustprogress nounwind uwtable
define linkonce_odr hidden void @_ZNSaIN5clang12ast_matchers8internal15DynTypedMatcherEED2Ev(ptr noundef nonnull align 1 dereferenceable(1) %0) unnamed_addr #0 comdat align 2 {
  %2 = alloca ptr, align 8
  store ptr %0, ptr %2, align 8
  %3 = load ptr, ptr %2, align 8
  call void @_ZNSt15__new_allocatorIN5clang12ast_matchers8internal15DynTypedMatcherEED2Ev(ptr noundef nonnull align 1 dereferenceable(1) %3) #8
  ret void
}

; Function Attrs: mustprogress nounwind uwtable
define linkonce_odr hidden void @_ZNSt16allocator_traitsISaIN5clang12ast_matchers8internal15DynTypedMatcherEEE10deallocateERS4_PS3_m(ptr noundef nonnull align 1 dereferenceable(1) %0, ptr noundef %1, i64 noundef %2) #0 comdat align 2 {
  %4 = alloca ptr, align 8
  %5 = alloca ptr, align 8
  %6 = alloca i64, align 8
  store ptr %0, ptr %4, align 8
  store ptr %1, ptr %5, align 8
  store i64 %2, ptr %6, align 8
  %7 = load ptr, ptr %4, align 8
  %8 = load ptr, ptr %5, align 8
  %9 = load i64, ptr %6, align 8
  call void @_ZNSt15__new_allocatorIN5clang12ast_matchers8internal15DynTypedMatcherEE10deallocateEPS3_m(ptr noundef nonnull align 1 dereferenceable(1) %7, ptr noundef %8, i64 noundef %9)
  ret void
}

; Function Attrs: mustprogress nounwind uwtable
define linkonce_odr hidden void @_ZNSt12_Destroy_auxILb0EE9__destroyIPN5clang12ast_matchers8internal15DynTypedMatcherEEEvT_S7_(ptr noundef %0, ptr noundef %1) #0 comdat align 2 {
  %3 = alloca ptr, align 8
  %4 = alloca ptr, align 8
  store ptr %0, ptr %3, align 8
  store ptr %1, ptr %4, align 8
  br label %5

5:                                                ; preds = %11, %2
  %6 = load ptr, ptr %3, align 8
  %7 = load ptr, ptr %4, align 8
  %8 = icmp ne ptr %6, %7
  br i1 %8, label %9, label %14

9:                                                ; preds = %5
  %10 = load ptr, ptr %3, align 8
  call void @_ZSt8_DestroyIN5clang12ast_matchers8internal15DynTypedMatcherEEvPT_(ptr noundef %10)
  br label %11

11:                                               ; preds = %9
  %12 = load ptr, ptr %3, align 8
  %13 = getelementptr inbounds %"class.clang::ast_matchers::internal::DynTypedMatcher", ptr %12, i32 1
  store ptr %13, ptr %3, align 8
  br label %5, !llvm.loop !57

14:                                               ; preds = %5
  ret void
}

; Function Attrs: mustprogress nounwind uwtable
define linkonce_odr hidden void @_ZNSt12_Vector_baseIN5clang12ast_matchers8internal15DynTypedMatcherESaIS3_EE12_Vector_implD2Ev(ptr noundef nonnull align 8 dereferenceable(24) %0) unnamed_addr #0 comdat align 2 {
  %2 = alloca ptr, align 8
  store ptr %0, ptr %2, align 8
  %3 = load ptr, ptr %2, align 8
  call void @_ZNSaIN5clang12ast_matchers8internal15DynTypedMatcherEED2Ev(ptr noundef nonnull align 1 dereferenceable(1) %3) #8
  ret void
}

; Function Attrs: mustprogress nounwind uwtable
define linkonce_odr hidden void @_ZNSt12_Vector_baseIN5clang12ast_matchers8internal15DynTypedMatcherESaIS3_EE13_M_deallocateEPS3_m(ptr noundef nonnull align 8 dereferenceable(24) %0, ptr noundef %1, i64 noundef %2) #0 comdat align 2 {
  %4 = alloca ptr, align 8
  %5 = alloca ptr, align 8
  %6 = alloca i64, align 8
  store ptr %0, ptr %4, align 8
  store ptr %1, ptr %5, align 8
  store i64 %2, ptr %6, align 8
  %7 = load ptr, ptr %4, align 8
  %8 = load ptr, ptr %5, align 8
  %9 = icmp ne ptr %8, null
  br i1 %9, label %10, label %14

10:                                               ; preds = %3
  %11 = getelementptr inbounds nuw %"struct.std::_Vector_base.774", ptr %7, i32 0, i32 0
  %12 = load ptr, ptr %5, align 8
  %13 = load i64, ptr %6, align 8
  call void @_ZNSt16allocator_traitsISaIN5clang12ast_matchers8internal15DynTypedMatcherEEE10deallocateERS4_PS3_m(ptr noundef nonnull align 1 dereferenceable(1) %11, ptr noundef %12, i64 noundef %13)
  br label %14

14:                                               ; preds = %10, %3
  ret void
}

; Function Attrs: mustprogress nounwind uwtable
define linkonce_odr void @_ZSt8_DestroyIPN5clang12ast_matchers8internal15DynTypedMatcherEEvT_S5_(ptr noundef %0, ptr noundef %1) #0 comdat {
  %3 = alloca ptr, align 8
  %4 = alloca ptr, align 8
  store ptr %0, ptr %3, align 8
  store ptr %1, ptr %4, align 8
  %5 = load ptr, ptr %3, align 8
  %6 = load ptr, ptr %4, align 8
  call void @_ZNSt12_Destroy_auxILb0EE9__destroyIPN5clang12ast_matchers8internal15DynTypedMatcherEEEvT_S7_(ptr noundef %5, ptr noundef %6)
  ret void
}

; Function Attrs: mustprogress nounwind uwtable
define linkonce_odr hidden void @_ZNSt12_Vector_baseIN5clang12ast_matchers8internal15DynTypedMatcherESaIS3_EED2Ev(ptr noundef nonnull align 8 dereferenceable(24) %0) unnamed_addr #0 comdat align 2 {
  %2 = alloca ptr, align 8
  store ptr %0, ptr %2, align 8
  %3 = load ptr, ptr %2, align 8
  %4 = getelementptr inbounds nuw %"struct.std::_Vector_base.774", ptr %3, i32 0, i32 0
  %5 = getelementptr inbounds nuw %"struct.std::_Vector_base<clang::ast_matchers::internal::DynTypedMatcher, std::allocator<clang::ast_matchers::internal::DynTypedMatcher>>::_Vector_impl_data", ptr %4, i32 0, i32 0
  %6 = load ptr, ptr %5, align 8
  %7 = getelementptr inbounds nuw %"struct.std::_Vector_base.774", ptr %3, i32 0, i32 0
  %8 = getelementptr inbounds nuw %"struct.std::_Vector_base<clang::ast_matchers::internal::DynTypedMatcher, std::allocator<clang::ast_matchers::internal::DynTypedMatcher>>::_Vector_impl_data", ptr %7, i32 0, i32 2
  %9 = load ptr, ptr %8, align 8
  %10 = getelementptr inbounds nuw %"struct.std::_Vector_base.774", ptr %3, i32 0, i32 0
  %11 = getelementptr inbounds nuw %"struct.std::_Vector_base<clang::ast_matchers::internal::DynTypedMatcher, std::allocator<clang::ast_matchers::internal::DynTypedMatcher>>::_Vector_impl_data", ptr %10, i32 0, i32 0
  %12 = load ptr, ptr %11, align 8
  %13 = ptrtoint ptr %9 to i64
  %14 = ptrtoint ptr %12 to i64
  %15 = sub i64 %13, %14
  %16 = sdiv exact i64 %15, 24
  call void @_ZNSt12_Vector_baseIN5clang12ast_matchers8internal15DynTypedMatcherESaIS3_EE13_M_deallocateEPS3_m(ptr noundef nonnull align 8 dereferenceable(24) %3, ptr noundef %6, i64 noundef %16)
  %17 = getelementptr inbounds nuw %"struct.std::_Vector_base.774", ptr %3, i32 0, i32 0
  call void @_ZNSt12_Vector_baseIN5clang12ast_matchers8internal15DynTypedMatcherESaIS3_EE12_Vector_implD2Ev(ptr noundef nonnull align 8 dereferenceable(24) %17) #8
  ret void
}

; Function Attrs: mustprogress nounwind uwtable
define linkonce_odr void @_ZSt8_DestroyIPN5clang12ast_matchers8internal15DynTypedMatcherES3_EvT_S5_RSaIT0_E(ptr noundef %0, ptr noundef %1, ptr noundef nonnull align 1 dereferenceable(1) %2) #0 comdat {
  %4 = alloca ptr, align 8
  %5 = alloca ptr, align 8
  %6 = alloca ptr, align 8
  store ptr %0, ptr %4, align 8
  store ptr %1, ptr %5, align 8
  store ptr %2, ptr %6, align 8
  %7 = load ptr, ptr %4, align 8
  %8 = load ptr, ptr %5, align 8
  call void @_ZSt8_DestroyIPN5clang12ast_matchers8internal15DynTypedMatcherEEvT_S5_(ptr noundef %7, ptr noundef %8)
  ret void
}

; Function Attrs: mustprogress nounwind uwtable
define linkonce_odr hidden noundef nonnull align 1 dereferenceable(1) ptr @_ZNSt12_Vector_baseIN5clang12ast_matchers8internal15DynTypedMatcherESaIS3_EE19_M_get_Tp_allocatorEv(ptr noundef nonnull align 8 dereferenceable(24) %0) #0 comdat align 2 {
  %2 = alloca ptr, align 8
  store ptr %0, ptr %2, align 8
  %3 = load ptr, ptr %2, align 8
  %4 = getelementptr inbounds nuw %"struct.std::_Vector_base.774", ptr %3, i32 0, i32 0
  ret ptr %4
}

; Function Attrs: mustprogress nounwind uwtable
define linkonce_odr hidden void @_ZN5clang12ast_matchers8internal19DynMatcherInterfaceD2Ev(ptr noundef nonnull align 8 dereferenceable(12) %0) unnamed_addr #0 comdat align 2 {
  %2 = alloca ptr, align 8
  store ptr %0, ptr %2, align 8
  ret void
}

; Function Attrs: mustprogress nounwind uwtable
define linkonce_odr hidden void @_ZNSt6vectorIN5clang12ast_matchers8internal15DynTypedMatcherESaIS3_EED2Ev(ptr noundef nonnull align 8 dereferenceable(24) %0) unnamed_addr #0 comdat align 2 {
  %2 = alloca ptr, align 8
  store ptr %0, ptr %2, align 8
  %3 = load ptr, ptr %2, align 8
  %4 = getelementptr inbounds nuw %"struct.std::_Vector_base.774", ptr %3, i32 0, i32 0
  %5 = getelementptr inbounds nuw %"struct.std::_Vector_base<clang::ast_matchers::internal::DynTypedMatcher, std::allocator<clang::ast_matchers::internal::DynTypedMatcher>>::_Vector_impl_data", ptr %4, i32 0, i32 0
  %6 = load ptr, ptr %5, align 8
  %7 = getelementptr inbounds nuw %"struct.std::_Vector_base.774", ptr %3, i32 0, i32 0
  %8 = getelementptr inbounds nuw %"struct.std::_Vector_base<clang::ast_matchers::internal::DynTypedMatcher, std::allocator<clang::ast_matchers::internal::DynTypedMatcher>>::_Vector_impl_data", ptr %7, i32 0, i32 1
  %9 = load ptr, ptr %8, align 8
  %10 = call noundef nonnull align 1 dereferenceable(1) ptr @_ZNSt12_Vector_baseIN5clang12ast_matchers8internal15DynTypedMatcherESaIS3_EE19_M_get_Tp_allocatorEv(ptr noundef nonnull align 8 dereferenceable(24) %3) #8
  call void @_ZSt8_DestroyIPN5clang12ast_matchers8internal15DynTypedMatcherES3_EvT_S5_RSaIT0_E(ptr noundef %6, ptr noundef %9, ptr noundef nonnull align 1 dereferenceable(1) %10)
  call void @_ZNSt12_Vector_baseIN5clang12ast_matchers8internal15DynTypedMatcherESaIS3_EED2Ev(ptr noundef nonnull align 8 dereferenceable(24) %3) #8
  ret void
}

; Function Attrs: mustprogress nounwind uwtable
define internal void @_ZN5clang12ast_matchers8internal12_GLOBAL__N_115VariadicMatcherIXadL_ZNS1_L21anyOfVariadicOperatorERKNS_12DynTypedNodeEPNS1_14ASTMatchFinderEPNS1_21BoundNodesTreeBuilderEN4llvm8ArrayRefINS1_15DynTypedMatcherEEEEEED2Ev(ptr noundef nonnull align 8 dereferenceable(40) %0) unnamed_addr #0 align 2 {
  %2 = alloca ptr, align 8
  store ptr %0, ptr %2, align 8
  %3 = load ptr, ptr %2, align 8
  store ptr getelementptr inbounds inrange(-16, 32) ({ [6 x ptr] }, ptr @_ZTVN5clang12ast_matchers8internal12_GLOBAL__N_115VariadicMatcherIXadL_ZNS1_L21anyOfVariadicOperatorERKNS_12DynTypedNodeEPNS1_14ASTMatchFinderEPNS1_21BoundNodesTreeBuilderEN4llvm8ArrayRefINS1_15DynTypedMatcherEEEEEEE, i32 0, i32 0, i32 2), ptr %3, align 8
  %4 = getelementptr inbounds nuw %"class.clang::ast_matchers::internal::(anonymous namespace)::VariadicMatcher.778", ptr %3, i32 0, i32 1
  call void @_ZNSt6vectorIN5clang12ast_matchers8internal15DynTypedMatcherESaIS3_EED2Ev(ptr noundef nonnull align 8 dereferenceable(24) %4) #8
  call void @_ZN5clang12ast_matchers8internal19DynMatcherInterfaceD2Ev(ptr noundef nonnull align 8 dereferenceable(12) %3) #8
  ret void
}

; Function Attrs: mustprogress nounwind uwtable
define internal void @_ZN5clang12ast_matchers8internal12_GLOBAL__N_115VariadicMatcherIXadL_ZNS1_L21anyOfVariadicOperatorERKNS_12DynTypedNodeEPNS1_14ASTMatchFinderEPNS1_21BoundNodesTreeBuilderEN4llvm8ArrayRefINS1_15DynTypedMatcherEEEEEED0Ev(ptr noundef nonnull align 8 dereferenceable(40) %0) unnamed_addr #0 align 2 {
  %2 = alloca ptr, align 8
  store ptr %0, ptr %2, align 8
  %3 = load ptr, ptr %2, align 8
  call void @_ZN5clang12ast_matchers8internal12_GLOBAL__N_115VariadicMatcherIXadL_ZNS1_L21anyOfVariadicOperatorERKNS_12DynTypedNodeEPNS1_14ASTMatchFinderEPNS1_21BoundNodesTreeBuilderEN4llvm8ArrayRefINS1_15DynTypedMatcherEEEEEED2Ev(ptr noundef nonnull align 8 dereferenceable(40) %3) #8
  call void @_ZdlPvm(ptr noundef %3, i64 noundef 40) #17
  ret void
}