; Function Attrs: mustprogress nounwind uwtable
define internal void @_ZN5clang12ast_matchers8internal12_GLOBAL__N_115VariadicMatcherIXadL_ZNS1_L21anyOfVariadicOperatorERKNS_12DynTypedNodeEPNS1_14ASTMatchFinderEPNS1_21BoundNodesTreeBuilderEN4llvm8ArrayRefINS1_15DynTypedMatcherEEEEEED0Ev(ptr noundef nonnull align 8 dereferenceable(40) %0) unnamed_addr #2 align 2 {
  store ptr getelementptr inbounds inrange(-16, 32) (i8, ptr @_ZTVN5clang12ast_matchers8internal12_GLOBAL__N_115VariadicMatcherIXadL_ZNS1_L21anyOfVariadicOperatorERKNS_12DynTypedNodeEPNS1_14ASTMatchFinderEPNS1_21BoundNodesTreeBuilderEN4llvm8ArrayRefINS1_15DynTypedMatcherEEEEEEE, i64 16), ptr %0, align 8
  %2 = getelementptr inbounds nuw i8, ptr %0, i64 16
  %3 = load ptr, ptr %2, align 8
  %4 = getelementptr inbounds i8, ptr %0, i64 24
  %5 = load ptr, ptr %4, align 8
  %.not4.i.i.i.i.i = icmp eq ptr %3, %5
  br i1 %.not4.i.i.i.i.i, label %_ZSt8_DestroyIPN5clang12ast_matchers8internal15DynTypedMatcherES3_EvT_S5_RSaIT0_E.exit.i.i, label %.lr.ph.i.i.i.i.i

.lr.ph.i.i.i.i.i:                                 ; preds = %1, %_ZSt8_DestroyIN5clang12ast_matchers8internal15DynTypedMatcherEEvPT_.exit.i.i.i.i.i
  %.05.i.i.i.i.i = phi ptr [ %16, %_ZSt8_DestroyIN5clang12ast_matchers8internal15DynTypedMatcherEEvPT_.exit.i.i.i.i.i ], [ %3, %1 ]
  %6 = getelementptr inbounds nuw i8, ptr %.05.i.i.i.i.i, i64 16
  %7 = load ptr, ptr %6, align 8
  %.not.i.i.i.i.i.i.i.i.i = icmp eq ptr %7, null
  br i1 %.not.i.i.i.i.i.i.i.i.i, label %_ZSt8_DestroyIN5clang12ast_matchers8internal15DynTypedMatcherEEvPT_.exit.i.i.i.i.i, label %8

8:                                                ; preds = %.lr.ph.i.i.i.i.i
  %9 = getelementptr inbounds i8, ptr %7, i64 8
  %10 = atomicrmw sub ptr %9, i32 1 acq_rel, align 4
  %11 = icmp eq i32 %10, 1
  br i1 %11, label %12, label %_ZSt8_DestroyIN5clang12ast_matchers8internal15DynTypedMatcherEEvPT_.exit.i.i.i.i.i

12:                                               ; preds = %8
  %13 = load ptr, ptr %7, align 8
  %14 = getelementptr inbounds i8, ptr %13, i64 8
  %15 = load ptr, ptr %14, align 8
  tail call void %15(ptr noundef nonnull align 8 dereferenceable(12) %7) #19
  br label %_ZSt8_DestroyIN5clang12ast_matchers8internal15DynTypedMatcherEEvPT_.exit.i.i.i.i.i

_ZSt8_DestroyIN5clang12ast_matchers8internal15DynTypedMatcherEEvPT_.exit.i.i.i.i.i: ; preds = %12, %8, %.lr.ph.i.i.i.i.i
  %16 = getelementptr inbounds i8, ptr %.05.i.i.i.i.i, i64 24
  %.not.i.i.i.i.i = icmp eq ptr %16, %5
  br i1 %.not.i.i.i.i.i, label %_ZSt8_DestroyIPN5clang12ast_matchers8internal15DynTypedMatcherES3_EvT_S5_RSaIT0_E.exitthread-pre-split.i.i, label %.lr.ph.i.i.i.i.i, !llvm.loop !76

_ZSt8_DestroyIPN5clang12ast_matchers8internal15DynTypedMatcherES3_EvT_S5_RSaIT0_E.exitthread-pre-split.i.i: ; preds = %_ZSt8_DestroyIN5clang12ast_matchers8internal15DynTypedMatcherEEvPT_.exit.i.i.i.i.i
  %.pr.i.i = load ptr, ptr %2, align 8
  br label %_ZSt8_DestroyIPN5clang12ast_matchers8internal15DynTypedMatcherES3_EvT_S5_RSaIT0_E.exit.i.i

_ZSt8_DestroyIPN5clang12ast_matchers8internal15DynTypedMatcherES3_EvT_S5_RSaIT0_E.exit.i.i: ; preds = %_ZSt8_DestroyIPN5clang12ast_matchers8internal15DynTypedMatcherES3_EvT_S5_RSaIT0_E.exitthread-pre-split.i.i, %1
  %17 = phi ptr [ %.pr.i.i, %_ZSt8_DestroyIPN5clang12ast_matchers8internal15DynTypedMatcherES3_EvT_S5_RSaIT0_E.exitthread-pre-split.i.i ], [ %3, %1 ]
  %.not.i.i.i.i = icmp eq ptr %17, null
  br i1 %.not.i.i.i.i, label %_ZN5clang12ast_matchers8internal12_GLOBAL__N_115VariadicMatcherIXadL_ZNS1_L21anyOfVariadicOperatorERKNS_12DynTypedNodeEPNS1_14ASTMatchFinderEPNS1_21BoundNodesTreeBuilderEN4llvm8ArrayRefINS1_15DynTypedMatcherEEEEEED2Ev.exit, label %18

18:                                               ; preds = %_ZSt8_DestroyIPN5clang12ast_matchers8internal15DynTypedMatcherES3_EvT_S5_RSaIT0_E.exit.i.i
  %19 = getelementptr inbounds i8, ptr %0, i64 32
  %20 = load ptr, ptr %19, align 8
  %21 = ptrtoint ptr %20 to i64
  %22 = ptrtoint ptr %17 to i64
  %23 = sub i64 %21, %22
  tail call void @_ZdlPvm(ptr noundef nonnull %17, i64 noundef %23) #20
  br label %_ZN5clang12ast_matchers8internal12_GLOBAL__N_115VariadicMatcherIXadL_ZNS1_L21anyOfVariadicOperatorERKNS_12DynTypedNodeEPNS1_14ASTMatchFinderEPNS1_21BoundNodesTreeBuilderEN4llvm8ArrayRefINS1_15DynTypedMatcherEEEEEED2Ev.exit

_ZN5clang12ast_matchers8internal12_GLOBAL__N_115VariadicMatcherIXadL_ZNS1_L21anyOfVariadicOperatorERKNS_12DynTypedNodeEPNS1_14ASTMatchFinderEPNS1_21BoundNodesTreeBuilderEN4llvm8ArrayRefINS1_15DynTypedMatcherEEEEEED2Ev.exit: ; preds = %_ZSt8_DestroyIPN5clang12ast_matchers8internal15DynTypedMatcherES3_EvT_S5_RSaIT0_E.exit.i.i, %18
  tail call void @_ZdlPvm(ptr noundef nonnull %0, i64 noundef 40) #20
  ret void
}